; Function Attrs: nounwind uwtable
define void @Bac_PtrDumpVerilog(ptr noundef %0, ptr noundef readonly captures(none) %1) local_unnamed_addr #0 {
  %3 = tail call noalias ptr @fopen(ptr noundef %0, ptr noundef nonnull @.str.8)
  %4 = icmp eq ptr %3, null
  br i1 %4, label %5, label %7

5:                                                ; preds = %2
  %6 = tail call i32 (ptr, ...) @printf(ptr noundef nonnull dereferenceable(1) @.str.9, ptr noundef %0)
  br label %19

7:                                                ; preds = %2
  %8 = getelementptr i8, ptr %1, i64 8
  %.val13 = load ptr, ptr %8, align 8
  %9 = load ptr, ptr %.val13, align 8
  %10 = tail call ptr (...) @Extra_TimeStamp() #14
  %11 = tail call i32 (ptr, ptr, ...) @fprintf(ptr noundef nonnull %3, ptr noundef nonnull @.str.10, ptr noundef %9, ptr noundef %10) #14
  %12 = getelementptr i8, ptr %1, i64 4
  %.val1415 = load i32, ptr %12, align 4
  %13 = icmp sgt i32 %.val1415, 1
  br i1 %13, label %.lr.ph, label %.critedge

.lr.ph:                                           ; preds = %7, %.lr.ph
  %indvars.iv = phi i64 [ %indvars.iv.next, %.lr.ph ], [ 1, %7 ]
  %.val = load ptr, ptr %8, align 8
  %14 = getelementptr inbounds nuw ptr, ptr %.val, i64 %indvars.iv
  %15 = load ptr, ptr %14, align 8
  tail call void @Bac_PtrDumpModuleVerilog(ptr noundef nonnull %3, ptr noundef %15)
  %indvars.iv.next = add nuw nsw i64 %indvars.iv, 1
  %.val14 = load i32, ptr %12, align 4
  %16 = sext i32 %.val14 to i64
  %17 = icmp slt i64 %indvars.iv.next, %16
  br i1 %17, label %.lr.ph, label %.critedge, !llvm.loop !16

.critedge:                                        ; preds = %.lr.ph, %7
  %18 = tail call i32 @fclose(ptr noundef nonnull %3)
  br label %19

19:                                               ; preds = %.critedge, %5
  ret void
}